; Function Attrs: nounwind uwtable
define ptr @l_Lake_Toml_keyvalCore(ptr noundef %0) local_unnamed_addr #1 {
  %2 = load ptr, ptr @l_Lake_Toml_trailingWs, align 8, !tbaa !10
  %3 = tail call ptr @l_Lean_Parser_andthen(ptr noundef %2, ptr noundef %0) #4
  %4 = load ptr, ptr @l_Lake_Toml_keyvalCore___closed__7, align 8, !tbaa !10
  %5 = tail call ptr @l_Lean_Parser_andthen(ptr noundef %4, ptr noundef %3) #4
  %6 = tail call ptr @l_Lean_Parser_andthen(ptr noundef %2, ptr noundef %5) #4
  %7 = load ptr, ptr @l_Lake_Toml_key, align 8, !tbaa !10
  %8 = tail call ptr @l_Lean_Parser_andthen(ptr noundef %7, ptr noundef %6) #4
  %9 = load ptr, ptr @l_Lake_Toml_keyvalCore___closed__1, align 8, !tbaa !10
  %10 = load ptr, ptr @l_Lake_Toml_keyvalCore___closed__2, align 8, !tbaa !10
  %11 = tail call ptr @l_Lean_Parser_nodeWithAntiquot(ptr noundef %9, ptr noundef %10, ptr noundef %8, i8 noundef zeroext 1) #4
  ret ptr %11
}